; Function Attrs: mustprogress nofree norecurse nosync nounwind willreturn memory(argmem: write) uwtable
define void @_ZN32pxrInternal_v0_24__pxrReserved__19HgiMultiSampleStateC2Ev(ptr nocapture noundef nonnull writeonly align 4 dereferenceable(8) %0) unnamed_addr #0 align 2 {
  store i8 1, ptr %0, align 4
  %2 = getelementptr inbounds nuw i8, ptr %0, i64 1
  store i8 0, ptr %2, align 1
  %3 = getelementptr inbounds nuw i8, ptr %0, i64 2
  store i8 0, ptr %3, align 2
  %4 = getelementptr inbounds nuw i8, ptr %0, i64 4
  store i32 1, ptr %4, align 4
  ret void
}